; Function Attrs: mustprogress uwtable
define void @_ZN32pxrInternal_v0_24__pxrReserved__12UsdSkelCache5ClearEv(ptr nocapture noundef nonnull readonly align 8 dereferenceable(16) %0) local_unnamed_addr #0 align 2 personality ptr @__gxx_personality_v0 {
  %2 = alloca %"struct.pxrInternal_v0_24__pxrReserved__::UsdSkel_CacheImpl::WriteScope", align 8
  %3 = load ptr, ptr %0, align 8
  call void @_ZN32pxrInternal_v0_24__pxrReserved__17UsdSkel_CacheImpl10WriteScopeC1EPS0_(ptr noundef nonnull align 8 dereferenceable(40) %2, ptr noundef %3)
  invoke void @_ZN32pxrInternal_v0_24__pxrReserved__17UsdSkel_CacheImpl10WriteScope5ClearEv(ptr noundef nonnull align 8 dereferenceable(40) %2)
          to label %4 unwind label %11

4:                                                ; preds = %1
  %5 = getelementptr inbounds nuw i8, ptr %2, i64 8
  %6 = load ptr, ptr %5, align 8
  %.not.i.i = icmp eq ptr %6, null
  br i1 %.not.i.i, label %_ZN32pxrInternal_v0_24__pxrReserved__17UsdSkel_CacheImpl10WriteScopeD2Ev.exit, label %7

7:                                                ; preds = %4
  invoke void @_ZN3tbb6detail2r17releaseERNS0_2d116queuing_rw_mutex11scoped_lockE(ptr noundef nonnull align 8 dereferenceable(27) %5)
          to label %_ZN32pxrInternal_v0_24__pxrReserved__17UsdSkel_CacheImpl10WriteScopeD2Ev.exit unwind label %8

8:                                                ; preds = %7
  %9 = landingpad { ptr, i32 }
          catch ptr null
  %10 = extractvalue { ptr, i32 } %9, 0
  call void @__clang_call_terminate(ptr %10) #17
  unreachable

_ZN32pxrInternal_v0_24__pxrReserved__17UsdSkel_CacheImpl10WriteScopeD2Ev.exit: ; preds = %4, %7
  ret void

11:                                               ; preds = %1
  %12 = landingpad { ptr, i32 }
          cleanup
  call void @_ZN32pxrInternal_v0_24__pxrReserved__17UsdSkel_CacheImpl10WriteScopeD2Ev(ptr noundef nonnull align 8 dereferenceable(40) %2) #18
  resume { ptr, i32 } %12
}